; Function Attrs: mustprogress nofree norecurse nosync nounwind willreturn memory(readwrite, inaccessiblemem: none) uwtable
define hidden void @_ZN9Assembler10vperm2i128E11XMMRegisterS0_S0_i(ptr noundef nonnull align 8 dereferenceable(40) %0, i32 %1, i32 %2, i32 %3, i32 noundef %4) local_unnamed_addr #8 align 2 {
  %6 = alloca %class.InstructionAttr, align 8
  store <8 x i8> <i8 0, i8 1, i8 1, i8 0, i8 0, i8 0, i8 1, i8 0>, ptr %6, align 8
  %7 = getelementptr inbounds i8, ptr %6, i64 8
  store <4 x i32> <i32 1, i32 24, i32 4, i32 0>, ptr %7, align 8
  %8 = getelementptr inbounds i8, ptr %6, i64 24
  store i32 0, ptr %8, align 8
  %9 = getelementptr inbounds i8, ptr %6, i64 32
  store ptr null, ptr %9, align 8
  %10 = sext i32 %1 to i64
  %11 = getelementptr inbounds %"class.XMMRegister::XMMRegisterImpl", ptr getelementptr inbounds (i8, ptr @all_XMMRegisterImpls, i64 1), i64 %10
  %12 = ptrtoint ptr %11 to i64
  %13 = trunc i64 %12 to i32
  %14 = sub i32 %13, ptrtoint (ptr getelementptr inbounds (i8, ptr @all_XMMRegisterImpls, i64 1) to i32)
  %15 = sext i32 %2 to i64
  %16 = getelementptr inbounds %"class.XMMRegister::XMMRegisterImpl", ptr getelementptr inbounds (i8, ptr @all_XMMRegisterImpls, i64 1), i64 %15
  %17 = ptrtoint ptr %16 to i64
  %18 = trunc i64 %17 to i32
  %19 = sub i32 %18, ptrtoint (ptr getelementptr inbounds (i8, ptr @all_XMMRegisterImpls, i64 1) to i32)
  %20 = sext i32 %3 to i64
  %21 = getelementptr inbounds %"class.XMMRegister::XMMRegisterImpl", ptr getelementptr inbounds (i8, ptr @all_XMMRegisterImpls, i64 1), i64 %20
  %22 = ptrtoint ptr %21 to i64
  %23 = trunc i64 %22 to i32
  %24 = sub i32 %23, ptrtoint (ptr getelementptr inbounds (i8, ptr @all_XMMRegisterImpls, i64 1) to i32)
  %25 = call noundef i32 @_ZN9Assembler21vex_prefix_and_encodeEiiiNS_13VexSimdPrefixENS_9VexOpcodeEP15InstructionAttrb(ptr noundef nonnull align 8 dereferenceable(40) %0, i32 noundef %14, i32 noundef %19, i32 noundef %24, i32 noundef 1, i32 noundef 3, ptr noundef nonnull %6, i1 noundef zeroext false)
  %26 = getelementptr inbounds i8, ptr %0, i64 8
  %27 = load ptr, ptr %26, align 8
  %28 = trunc nuw nsw i32 %25 to i8
  %.0.i3.i = or disjoint i8 %28, -64
  %.0.i4.i = trunc i32 %4 to i8
  %29 = getelementptr inbounds i8, ptr %27, i64 16
  %30 = load ptr, ptr %29, align 8
  %31 = getelementptr inbounds i8, ptr %30, i64 1
  store i8 70, ptr %30, align 1
  %32 = getelementptr inbounds i8, ptr %30, i64 2
  store i8 %.0.i3.i, ptr %31, align 1
  %33 = getelementptr inbounds i8, ptr %30, i64 3
  store i8 %.0.i4.i, ptr %32, align 1
  store ptr %33, ptr %29, align 8
  %34 = load ptr, ptr %9, align 8
  %.not.i = icmp eq ptr %34, null
  br i1 %.not.i, label %_ZN15InstructionAttrD2Ev.exit, label %35

35:                                               ; preds = %5
  %36 = getelementptr inbounds i8, ptr %34, i64 32
  store ptr null, ptr %36, align 8
  br label %_ZN15InstructionAttrD2Ev.exit

_ZN15InstructionAttrD2Ev.exit:                    ; preds = %5, %35
  ret void
}